target datalayout = "e-m:e-p270:32:32-p271:32:32-p272:64:64-i64:64-i128:128-f80:128-n8:16:32:64-S128"
target triple = "x86_64-pc-linux-gnu"

%struct.pg_enc2name = type { ptr, i32 }

@Utf8ToServerConvProc = internal global ptr null, align 8
@DatabaseEncoding = internal global ptr @pg_enc2name_tbl, align 8

; Function Attrs: inlinehint nounwind uwtable
define internal i64 @PointerGetDatum(ptr noundef %0) #0 {
  %2 = alloca ptr, align 8
  store ptr %0, ptr %2, align 8
  %3 = load ptr, ptr %2, align 8
  %4 = ptrtoint ptr %3 to i64
  ret i64 %4
}

; Function Attrs: inlinehint nounwind uwtable
define internal i32 @DatumGetInt32(i64 noundef %0) #0 {
  %2 = alloca i64, align 8
  store i64 %0, ptr %2, align 8
  %3 = load i64, ptr %2, align 8
  %4 = trunc i64 %3 to i32
  ret i32 %4
}

; Function Attrs: inlinehint nounwind uwtable
define internal i64 @BoolGetDatum(i1 noundef zeroext %0) #0 {
  %2 = alloca i8, align 1
  %3 = zext i1 %0 to i8
  store i8 %3, ptr %2, align 1
  %4 = load i8, ptr %2, align 1, !range !4, !noundef !5
  %5 = trunc i8 %4 to i1
  %6 = select i1 %5, i32 1, i32 0
  %7 = sext i32 %6 to i64
  ret i64 %7
}

; Function Attrs: inlinehint nounwind uwtable
define internal i64 @CStringGetDatum(ptr noundef %0) #0 {
  %2 = alloca ptr, align 8
  store ptr %0, ptr %2, align 8
  %3 = load ptr, ptr %2, align 8
  %4 = call i64 @PointerGetDatum(ptr noundef %3)
  ret i64 %4
}

; Function Attrs: inlinehint nounwind uwtable
define internal i64 @Int32GetDatum(i32 noundef %0) #0 {
  %2 = alloca i32, align 4
  store i32 %0, ptr %2, align 4
  %3 = load i32, ptr %2, align 4
  %4 = sext i32 %3 to i64
  ret i64 %4
}

; Function Attrs: inlinehint nounwind uwtable
define internal ptr @unicode_to_utf8(i32 noundef %0, ptr noundef %1) #0 {
  %3 = alloca i32, align 4
  %4 = alloca ptr, align 8
  store i32 %0, ptr %3, align 4
  store ptr %1, ptr %4, align 8
  %5 = load i32, ptr %3, align 4
  %6 = icmp ule i32 %5, 127
  br i1 %6, label %7, label %12

7:                                                ; preds = %2
  %8 = load i32, ptr %3, align 4
  %9 = trunc i32 %8 to i8
  %10 = load ptr, ptr %4, align 8
  %11 = getelementptr inbounds i8, ptr %10, i64 0
  store i8 %9, ptr %11, align 1
  br label %83

12:                                               ; preds = %2
  %13 = load i32, ptr %3, align 4
  %14 = icmp ule i32 %13, 2047
  br i1 %14, label %15, label %29

15:                                               ; preds = %12
  %16 = load i32, ptr %3, align 4
  %17 = lshr i32 %16, 6
  %18 = and i32 %17, 31
  %19 = or i32 192, %18
  %20 = trunc i32 %19 to i8
  %21 = load ptr, ptr %4, align 8
  %22 = getelementptr inbounds i8, ptr %21, i64 0
  store i8 %20, ptr %22, align 1
  %23 = load i32, ptr %3, align 4
  %24 = and i32 %23, 63
  %25 = or i32 128, %24
  %26 = trunc i32 %25 to i8
  %27 = load ptr, ptr %4, align 8
  %28 = getelementptr inbounds i8, ptr %27, i64 1
  store i8 %26, ptr %28, align 1
  br label %82

29:                                               ; preds = %12
  %30 = load i32, ptr %3, align 4
  %31 = icmp ule i32 %30, 65535
  br i1 %31, label %32, label %53

32:                                               ; preds = %29
  %33 = load i32, ptr %3, align 4
  %34 = lshr i32 %33, 12
  %35 = and i32 %34, 15
  %36 = or i32 224, %35
  %37 = trunc i32 %36 to i8
  %38 = load ptr, ptr %4, align 8
  %39 = getelementptr inbounds i8, ptr %38, i64 0
  store i8 %37, ptr %39, align 1
  %40 = load i32, ptr %3, align 4
  %41 = lshr i32 %40, 6
  %42 = and i32 %41, 63
  %43 = or i32 128, %42
  %44 = trunc i32 %43 to i8
  %45 = load ptr, ptr %4, align 8
  %46 = getelementptr inbounds i8, ptr %45, i64 1
  store i8 %44, ptr %46, align 1
  %47 = load i32, ptr %3, align 4
  %48 = and i32 %47, 63
  %49 = or i32 128, %48
  %50 = trunc i32 %49 to i8
  %51 = load ptr, ptr %4, align 8
  %52 = getelementptr inbounds i8, ptr %51, i64 2
  store i8 %50, ptr %52, align 1
  br label %81

53:                                               ; preds = %29
  %54 = load i32, ptr %3, align 4
  %55 = lshr i32 %54, 18
  %56 = and i32 %55, 7
  %57 = or i32 240, %56
  %58 = trunc i32 %57 to i8
  %59 = load ptr, ptr %4, align 8
  %60 = getelementptr inbounds i8, ptr %59, i64 0
  store i8 %58, ptr %60, align 1
  %61 = load i32, ptr %3, align 4
  %62 = lshr i32 %61, 12
  %63 = and i32 %62, 63
  %64 = or i32 128, %63
  %65 = trunc i32 %64 to i8
  %66 = load ptr, ptr %4, align 8
  %67 = getelementptr inbounds i8, ptr %66, i64 1
  store i8 %65, ptr %67, align 1
  %68 = load i32, ptr %3, align 4
  %69 = lshr i32 %68, 6
  %70 = and i32 %69, 63
  %71 = or i32 128, %70
  %72 = trunc i32 %71 to i8
  %73 = load ptr, ptr %4, align 8
  %74 = getelementptr inbounds i8, ptr %73, i64 2
  store i8 %72, ptr %74, align 1
  %75 = load i32, ptr %3, align 4
  %76 = and i32 %75, 63
  %77 = or i32 128, %76
  %78 = trunc i32 %77 to i8
  %79 = load ptr, ptr %4, align 8
  %80 = getelementptr inbounds i8, ptr %79, i64 3
  store i8 %78, ptr %80, align 1
  br label %81

81:                                               ; preds = %53, %32
  br label %82

82:                                               ; preds = %81, %15
  br label %83

83:                                               ; preds = %82, %7
  %84 = load ptr, ptr %4, align 8
  ret ptr %84
}

; Function Attrs: nounwind uwtable
define dso_local i32 @GetDatabaseEncoding() #1 {
  %1 = load ptr, ptr @DatabaseEncoding, align 8
  %2 = getelementptr inbounds nuw %struct.pg_enc2name, ptr %1, i32 0, i32 1
  %3 = load i32, ptr %2, align 8
  ret i32 %3
}

; Function Attrs: inlinehint nounwind uwtable
define internal zeroext i1 @is_valid_unicode_codepoint(i32 noundef %0) #0 {
  %2 = alloca i32, align 4
  store i32 %0, ptr %2, align 4
  %3 = load i32, ptr %2, align 4
  %4 = icmp ugt i32 %3, 0
  br i1 %4, label %5, label %8

5:                                                ; preds = %1
  %6 = load i32, ptr %2, align 4
  %7 = icmp ule i32 %6, 1114111
  br label %8

8:                                                ; preds = %5, %1
  %9 = phi i1 [ false, %1 ], [ %7, %5 ]
  ret i1 %9
}

; Function Attrs: nounwind uwtable
define dso_local zeroext i1 @pg_unicode_to_server_noerror(i32 noundef %0, ptr noundef %1) #1 {
  %3 = alloca i1, align 1
  %4 = alloca i32, align 4
  %5 = alloca ptr, align 8
  %6 = alloca [5 x i8], align 1
  %7 = alloca i32, align 4
  %8 = alloca i32, align 4
  %9 = alloca i32, align 4
  %10 = alloca i32, align 4
  store i32 %0, ptr %4, align 4
  store ptr %1, ptr %5, align 8
  call void @llvm.lifetime.start.p0(i64 5, ptr %6) #9
  call void @llvm.lifetime.start.p0(i64 4, ptr %7) #9
  call void @llvm.lifetime.start.p0(i64 4, ptr %8) #9
  call void @llvm.lifetime.start.p0(i64 4, ptr %9) #9
  %11 = load i32, ptr %4, align 4
  %12 = call zeroext i1 @is_valid_unicode_codepoint(i32 noundef %11)
  br i1 %12, label %14, label %13

13:                                               ; preds = %2
  store i1 false, ptr %3, align 1
  store i32 1, ptr %10, align 4
  br label %66

14:                                               ; preds = %2
  %15 = load i32, ptr %4, align 4
  %16 = icmp ule i32 %15, 127
  br i1 %16, label %17, label %24

17:                                               ; preds = %14
  %18 = load i32, ptr %4, align 4
  %19 = trunc i32 %18 to i8
  %20 = load ptr, ptr %5, align 8
  %21 = getelementptr inbounds i8, ptr %20, i64 0
  store i8 %19, ptr %21, align 1
  %22 = load ptr, ptr %5, align 8
  %23 = getelementptr inbounds i8, ptr %22, i64 1
  store i8 0, ptr %23, align 1
  store i1 true, ptr %3, align 1
  store i32 1, ptr %10, align 4
  br label %66

24:                                               ; preds = %14
  %25 = call i32 @GetDatabaseEncoding()
  store i32 %25, ptr %9, align 4
  %26 = load i32, ptr %9, align 4
  %27 = icmp eq i32 %26, 6
  br i1 %27, label %28, label %37

28:                                               ; preds = %24
  %29 = load i32, ptr %4, align 4
  %30 = load ptr, ptr %5, align 8
  %31 = call ptr @unicode_to_utf8(i32 noundef %29, ptr noundef %30)
  %32 = load ptr, ptr %5, align 8
  %33 = load ptr, ptr %5, align 8
  %34 = call i32 @pg_utf_mblen_private(ptr noundef %33)
  %35 = sext i32 %34 to i64
  %36 = getelementptr inbounds i8, ptr %32, i64 %35
  store i8 0, ptr %36, align 1
  store i1 true, ptr %3, align 1
  store i32 1, ptr %10, align 4
  br label %66

37:                                               ; preds = %24
  %38 = load ptr, ptr @Utf8ToServerConvProc, align 8
  %39 = icmp eq ptr %38, null
  br i1 %39, label %40, label %41

40:                                               ; preds = %37
  store i1 false, ptr %3, align 1
  store i32 1, ptr %10, align 4
  br label %66

41:                                               ; preds = %37
  %42 = load i32, ptr %4, align 4
  %43 = getelementptr inbounds [5 x i8], ptr %6, i64 0, i64 0
  %44 = call ptr @unicode_to_utf8(i32 noundef %42, ptr noundef %43)
  %45 = getelementptr inbounds [5 x i8], ptr %6, i64 0, i64 0
  %46 = call i32 @pg_utf_mblen_private(ptr noundef %45)
  store i32 %46, ptr %7, align 4
  %47 = load i32, ptr %7, align 4
  %48 = sext i32 %47 to i64
  %49 = getelementptr inbounds [5 x i8], ptr %6, i64 0, i64 %48
  store i8 0, ptr %49, align 1
  %50 = load ptr, ptr @Utf8ToServerConvProc, align 8
  %51 = call i64 @Int32GetDatum(i32 noundef 6)
  %52 = load i32, ptr %9, align 4
  %53 = call i64 @Int32GetDatum(i32 noundef %52)
  %54 = getelementptr inbounds [5 x i8], ptr %6, i64 0, i64 0
  %55 = call i64 @CStringGetDatum(ptr noundef %54)
  %56 = load ptr, ptr %5, align 8
  %57 = call i64 @CStringGetDatum(ptr noundef %56)
  %58 = load i32, ptr %7, align 4
  %59 = call i64 @Int32GetDatum(i32 noundef %58)
  %60 = call i64 @BoolGetDatum(i1 noundef zeroext true)
  %61 = call i64 @FunctionCall6Coll(ptr noundef %50, i32 noundef 0, i64 noundef %51, i64 noundef %53, i64 noundef %55, i64 noundef %57, i64 noundef %59, i64 noundef %60)
  %62 = call i32 @DatumGetInt32(i64 noundef %61)
  store i32 %62, ptr %8, align 4
  %63 = load i32, ptr %8, align 4
  %64 = load i32, ptr %7, align 4
  %65 = icmp eq i32 %63, %64
  store i1 %65, ptr %3, align 1
  store i32 1, ptr %10, align 4
  br label %66

66:                                               ; preds = %41, %40, %28, %17, %13
  call void @llvm.lifetime.end.p0(i64 4, ptr %9) #9
  call void @llvm.lifetime.end.p0(i64 4, ptr %8) #9
  call void @llvm.lifetime.end.p0(i64 4, ptr %7) #9
  call void @llvm.lifetime.end.p0(i64 5, ptr %6) #9
  %67 = load i1, ptr %3, align 1
  ret i1 %67
}