; Function Attrs: nounwind uwtable
define dso_local zeroext i1 @pg_unicode_to_server_noerror(i32 noundef %0, ptr noundef %1) local_unnamed_addr #0 {
  %3 = alloca [5 x i8], align 1
  call void @llvm.lifetime.start.p0(i64 5, ptr nonnull %3) #13
  %4 = add i32 %0, -1
  %5 = icmp ult i32 %4, 1114111
  %.sink24.i19.sroa.gep = getelementptr inbounds nuw i8, ptr %3, i64 1
  %.sink24.i19.sroa.gep21 = getelementptr inbounds nuw i8, ptr %3, i64 3
  %.sink24.i19.sroa.gep22 = getelementptr inbounds nuw i8, ptr %3, i64 2
  br i1 %5, label %6, label %97

6:                                                ; preds = %2
  %7 = icmp samesign ult i32 %0, 128
  br i1 %7, label %8, label %11

8:                                                ; preds = %6
  %9 = trunc nuw nsw i32 %0 to i8
  store i8 %9, ptr %1, align 1
  %10 = getelementptr inbounds nuw i8, ptr %1, i64 1
  store i8 0, ptr %10, align 1
  br label %97

11:                                               ; preds = %6
  %12 = load ptr, ptr @DatabaseEncoding, align 8
  %13 = getelementptr inbounds nuw i8, ptr %12, i64 8
  %14 = load i32, ptr %13, align 8
  %15 = icmp eq i32 %14, 6
  br i1 %15, label %16, label %53

16:                                               ; preds = %11
  %17 = icmp samesign ult i32 %0, 2048
  br i1 %17, label %18, label %22

18:                                               ; preds = %16
  %19 = lshr i32 %0, 6
  %20 = trunc nuw i32 %19 to i8
  %21 = or disjoint i8 %20, -64
  store i8 %21, ptr %1, align 1
  br label %unicode_to_utf8.exit

22:                                               ; preds = %16
  %23 = icmp samesign ult i32 %0, 65536
  %24 = getelementptr inbounds nuw i8, ptr %1, i64 1
  br i1 %23, label %25, label %33

25:                                               ; preds = %22
  %26 = lshr i32 %0, 12
  %27 = trunc nuw i32 %26 to i8
  %28 = or disjoint i8 %27, -32
  store i8 %28, ptr %1, align 1
  %29 = lshr i32 %0, 6
  %30 = trunc i32 %29 to i8
  %31 = and i8 %30, 63
  %32 = or disjoint i8 %31, -128
  store i8 %32, ptr %24, align 1
  br label %unicode_to_utf8.exit

33:                                               ; preds = %22
  %34 = lshr i32 %0, 18
  %35 = trunc nuw i32 %34 to i8
  %36 = or disjoint i8 %35, -16
  store i8 %36, ptr %1, align 1
  %37 = lshr i32 %0, 12
  %38 = trunc i32 %37 to i8
  %39 = and i8 %38, 63
  %40 = or disjoint i8 %39, -128
  store i8 %40, ptr %24, align 1
  %41 = lshr i32 %0, 6
  %42 = trunc i32 %41 to i8
  %43 = and i8 %42, 63
  %44 = or disjoint i8 %43, -128
  %45 = getelementptr inbounds nuw i8, ptr %1, i64 2
  store i8 %44, ptr %45, align 1
  br label %unicode_to_utf8.exit

unicode_to_utf8.exit:                             ; preds = %18, %25, %33
  %.sink24.i = phi i64 [ 1, %18 ], [ 3, %33 ], [ 2, %25 ]
  %46 = trunc i32 %0 to i8
  %47 = and i8 %46, 63
  %48 = or disjoint i8 %47, -128
  %49 = getelementptr inbounds nuw i8, ptr %1, i64 %.sink24.i
  store i8 %48, ptr %49, align 1
  %50 = tail call i32 @pg_utf_mblen_private(ptr noundef nonnull %1) #13
  %51 = sext i32 %50 to i64
  %52 = getelementptr inbounds i8, ptr %1, i64 %51
  store i8 0, ptr %52, align 1
  br label %97

53:                                               ; preds = %11
  %54 = load ptr, ptr @Utf8ToServerConvProc, align 8
  %55 = icmp eq ptr %54, null
  br i1 %55, label %97, label %56

56:                                               ; preds = %53
  %57 = icmp samesign ult i32 %0, 2048
  br i1 %57, label %58, label %62

58:                                               ; preds = %56
  %59 = lshr i32 %0, 6
  %60 = trunc nuw i32 %59 to i8
  %61 = or disjoint i8 %60, -64
  store i8 %61, ptr %3, align 1
  br label %unicode_to_utf8.exit20

62:                                               ; preds = %56
  %63 = icmp samesign ult i32 %0, 65536
  br i1 %63, label %64, label %72

64:                                               ; preds = %62
  %65 = lshr i32 %0, 12
  %66 = trunc nuw i32 %65 to i8
  %67 = or disjoint i8 %66, -32
  store i8 %67, ptr %3, align 1
  %68 = lshr i32 %0, 6
  %69 = trunc i32 %68 to i8
  %70 = and i8 %69, 63
  %71 = or disjoint i8 %70, -128
  store i8 %71, ptr %.sink24.i19.sroa.gep, align 1
  br label %unicode_to_utf8.exit20

72:                                               ; preds = %62
  %73 = lshr i32 %0, 18
  %74 = trunc nuw i32 %73 to i8
  %75 = or disjoint i8 %74, -16
  store i8 %75, ptr %3, align 1
  %76 = lshr i32 %0, 12
  %77 = trunc i32 %76 to i8
  %78 = and i8 %77, 63
  %79 = or disjoint i8 %78, -128
  store i8 %79, ptr %.sink24.i19.sroa.gep, align 1
  %80 = lshr i32 %0, 6
  %81 = trunc i32 %80 to i8
  %82 = and i8 %81, 63
  %83 = or disjoint i8 %82, -128
  store i8 %83, ptr %.sink24.i19.sroa.gep22, align 1
  br label %unicode_to_utf8.exit20

unicode_to_utf8.exit20:                           ; preds = %58, %64, %72
  %.sink24.i19.sroa.phi = phi ptr [ %.sink24.i19.sroa.gep, %58 ], [ %.sink24.i19.sroa.gep21, %72 ], [ %.sink24.i19.sroa.gep22, %64 ]
  %84 = trunc i32 %0 to i8
  %85 = and i8 %84, 63
  %86 = or disjoint i8 %85, -128
  store i8 %86, ptr %.sink24.i19.sroa.phi, align 1
  %87 = call i32 @pg_utf_mblen_private(ptr noundef nonnull %3) #13
  %88 = sext i32 %87 to i64
  %89 = getelementptr inbounds [5 x i8], ptr %3, i64 0, i64 %88
  store i8 0, ptr %89, align 1
  %90 = load ptr, ptr @Utf8ToServerConvProc, align 8
  %91 = sext i32 %14 to i64
  %92 = ptrtoint ptr %3 to i64
  %93 = ptrtoint ptr %1 to i64
  %94 = call i64 @FunctionCall6Coll(ptr noundef %90, i32 noundef 0, i64 noundef 6, i64 noundef %91, i64 noundef %92, i64 noundef %93, i64 noundef %88, i64 noundef 1) #13
  %95 = trunc i64 %94 to i32
  %96 = icmp eq i32 %87, %95
  br label %97

97:                                               ; preds = %53, %2, %unicode_to_utf8.exit20, %unicode_to_utf8.exit, %8
  %.0 = phi i1 [ true, %8 ], [ true, %unicode_to_utf8.exit ], [ %96, %unicode_to_utf8.exit20 ], [ false, %2 ], [ false, %53 ]
  call void @llvm.lifetime.end.p0(i64 5, ptr nonnull %3) #13
  ret i1 %.0
}